; Function Attrs: mustprogress uwtable
define void @_ZN7rocksdb12ReplayerImpl7ExecuteERKSt10unique_ptrINS_11TraceRecordESt14default_deleteIS2_EEPS1_INS_17TraceRecordResultES3_IS8_EE(ptr dead_on_unwind noalias writable sret(%"class.rocksdb::Status") align 8 %0, ptr noundef nonnull readonly align 8 captures(none) dereferenceable(92) %1, ptr noundef nonnull readonly align 8 captures(none) dereferenceable(8) %2, ptr noundef %3) unnamed_addr #0 align 2 {
  %5 = load ptr, ptr %2, align 8, !tbaa !79
  %6 = getelementptr inbounds nuw i8, ptr %1, i64 72
  %7 = load ptr, ptr %6, align 8, !tbaa !35
  %8 = load ptr, ptr %5, align 8, !tbaa !4
  %9 = getelementptr inbounds nuw i8, ptr %8, i64 32
  %10 = load ptr, ptr %9, align 8
  tail call void %10(ptr dead_on_unwind writable sret(%"class.rocksdb::Status") align 8 %0, ptr noundef nonnull align 8 dereferenceable(16) %5, ptr noundef %7, ptr noundef %3)
  ret void
}